; Function Attrs: nounwind uwtable
define internal void @cid_size_done(ptr noundef readonly captures(none) %0) #2 {
  %2 = getelementptr inbounds nuw i8, ptr %0, i64 80
  %3 = load ptr, ptr %2, align 8
  %4 = load ptr, ptr %3, align 8
  %.not = icmp eq ptr %4, null
  br i1 %.not, label %21, label %5

5:                                                ; preds = %1
  %.val = load ptr, ptr %0, align 8
  %6 = getelementptr i8, ptr %.val, i64 176
  %.val.val = load ptr, ptr %6, align 8
  %7 = getelementptr i8, ptr %.val, i64 608
  %.val.val8 = load ptr, ptr %7, align 8
  %8 = getelementptr i8, ptr %.val.val, i64 8
  %.val.val.val = load ptr, ptr %8, align 8
  %9 = tail call ptr @FT_Get_Module(ptr noundef %.val.val.val, ptr noundef nonnull @.str.8) #13
  %10 = icmp ne ptr %9, null
  %11 = icmp ne ptr %.val.val8, null
  %or.cond.i = select i1 %10, i1 %11, i1 false
  br i1 %or.cond.i, label %12, label %cid_size_get_globals_funcs.exit.thread

12:                                               ; preds = %5
  %13 = load ptr, ptr %.val.val8, align 8
  %.not.i = icmp eq ptr %13, null
  br i1 %.not.i, label %cid_size_get_globals_funcs.exit.thread, label %cid_size_get_globals_funcs.exit

cid_size_get_globals_funcs.exit:                  ; preds = %12
  %14 = tail call ptr %13(ptr noundef nonnull %9) #13
  %.not7 = icmp eq ptr %14, null
  br i1 %.not7, label %cid_size_get_globals_funcs.exit.thread, label %15

15:                                               ; preds = %cid_size_get_globals_funcs.exit
  %16 = getelementptr inbounds nuw i8, ptr %14, i64 16
  %17 = load ptr, ptr %16, align 8
  %18 = load ptr, ptr %2, align 8
  %19 = load ptr, ptr %18, align 8
  tail call void %17(ptr noundef %19) #13
  br label %cid_size_get_globals_funcs.exit.thread

cid_size_get_globals_funcs.exit.thread:           ; preds = %5, %12, %15, %cid_size_get_globals_funcs.exit
  %20 = load ptr, ptr %2, align 8
  store ptr null, ptr %20, align 8
  br label %21

21:                                               ; preds = %cid_size_get_globals_funcs.exit.thread, %1
  ret void
}